; Function Attrs: mustprogress uwtable
define void @_ZN17grpc_event_engine12experimental18ThreadyEventEngine3RunEPNS0_11EventEngine7ClosureE(ptr nonnull readnone align 8 captures(none) %0, ptr noundef %1) unnamed_addr #3 align 2 personality ptr @__gxx_personality_v0 {
  %3 = alloca %"class.absl::lts_20240722::AnyInvocable", align 16
  %4 = alloca %"class.absl::lts_20240722::AnyInvocable", align 16
  %5 = ptrtoint ptr %1 to i64
  store i64 %5, ptr %4, align 16, !tbaa !102
  %6 = getelementptr inbounds nuw i8, ptr %4, i64 24
  %7 = getelementptr inbounds nuw i8, ptr %4, i64 16
  call void @llvm.lifetime.start.p0(i64 32, ptr nonnull %3)
  call void @llvm.memcpy.p0.p0.i64(ptr noundef nonnull align 16 dereferenceable(32) %3, ptr noundef nonnull align 16 dereferenceable(32) %4, i64 16, i1 false), !tbaa.struct !104
  %8 = getelementptr inbounds nuw i8, ptr %3, i64 16
  store ptr @_ZN4absl12lts_2024072222internal_any_invocable19LocalManagerTrivialENS1_14FunctionToCallEPNS1_15TypeErasedStateES4_, ptr %8, align 16, !tbaa !3
  %9 = getelementptr inbounds nuw i8, ptr %3, i64 24
  store ptr @"_ZN4absl12lts_2024072222internal_any_invocable12LocalInvokerILb0EvRZN17grpc_event_engine12experimental18ThreadyEventEngine3RunEPNS4_11EventEngine7ClosureEE3$_0JEEET0_PNS1_15TypeErasedStateEDpNS1_18ForwardedParameterIT2_E4typeE", ptr %9, align 8, !tbaa !8
  store ptr @_ZN4absl12lts_2024072222internal_any_invocable12EmptyManagerENS1_14FunctionToCallEPNS1_15TypeErasedStateES4_, ptr %7, align 16, !tbaa !3
  store ptr null, ptr %6, align 8, !tbaa !8
  invoke void @_ZN17grpc_event_engine12experimental18ThreadyEventEngine14AsynchronouslyEN4absl12lts_2024072212AnyInvocableIFvvEEE(ptr nonnull readnone align 8 poison, ptr noundef nonnull %3)
          to label %13 unwind label %.body

.body:                                            ; preds = %2
  %10 = landingpad { ptr, i32 }
          cleanup
  %11 = load ptr, ptr %8, align 16, !tbaa !3
  call void %11(i1 noundef zeroext true, ptr noundef nonnull align 16 dereferenceable(32) %3, ptr noundef nonnull align 16 dereferenceable(32) %3) #26
  %12 = load ptr, ptr %7, align 16, !tbaa !3
  call void %12(i1 noundef zeroext true, ptr noundef nonnull align 16 dereferenceable(32) %4, ptr noundef nonnull align 16 dereferenceable(32) %4) #26
  resume { ptr, i32 } %10

13:                                               ; preds = %2
  %14 = load ptr, ptr %8, align 16, !tbaa !3
  call void %14(i1 noundef zeroext true, ptr noundef nonnull align 16 dereferenceable(32) %3, ptr noundef nonnull align 16 dereferenceable(32) %3) #26
  call void @llvm.lifetime.end.p0(i64 32, ptr nonnull %3)
  %15 = load ptr, ptr %7, align 16, !tbaa !3
  call void %15(i1 noundef zeroext true, ptr noundef nonnull align 16 dereferenceable(32) %4, ptr noundef nonnull align 16 dereferenceable(32) %4) #26
  ret void
}